target datalayout = "e-m:e-p270:32:32-p271:32:32-p272:64:64-i64:64-i128:128-f80:128-n8:16:32:64-S128"
target triple = "x86_64-unknown-linux-gnu"

%"class.cvc5::internal::proof::LfscPrintChannelOut" = type { %"class.cvc5::internal::proof::LfscPrintChannel", ptr }
%"class.cvc5::internal::proof::LfscPrintChannel" = type { ptr }

@.str.4 = private unnamed_addr constant [2 x i8] c"(\00", align 1

; Function Attrs: mustprogress uwtable
define hidden void @_ZN4cvc58internal5proof19LfscPrintChannelOut13printOpenRuleEPKNS0_9ProofNodeE(ptr noundef nonnull align 8 dereferenceable(16) %this, ptr noundef %pn) unnamed_addr #4 align 2 {
entry:
  %this.addr = alloca ptr, align 8
  %pn.addr = alloca ptr, align 8
  store ptr %this, ptr %this.addr, align 8
  store ptr %pn, ptr %pn.addr, align 8
  %this1 = load ptr, ptr %this.addr, align 8
  %d_out = getelementptr inbounds %"class.cvc5::internal::proof::LfscPrintChannelOut", ptr %this1, i32 0, i32 1
  %0 = load ptr, ptr %d_out, align 8
  %call = call noundef nonnull align 8 dereferenceable(8) ptr @_ZNSolsEPFRSoS_E(ptr noundef nonnull align 8 dereferenceable(8) %0, ptr noundef @_ZSt4endlIcSt11char_traitsIcEERSt13basic_ostreamIT_T0_ES6_)
  %call2 = call noundef nonnull align 8 dereferenceable(8) ptr @_ZStlsISt11char_traitsIcEERSt13basic_ostreamIcT_ES5_PKc(ptr noundef nonnull align 8 dereferenceable(8) %call, ptr noundef @.str.4)
  %d_out3 = getelementptr inbounds %"class.cvc5::internal::proof::LfscPrintChannelOut", ptr %this1, i32 0, i32 1
  %1 = load ptr, ptr %d_out3, align 8
  %2 = load ptr, ptr %pn.addr, align 8
  call void @_ZN4cvc58internal5proof19LfscPrintChannelOut9printRuleERSoPKNS0_9ProofNodeE(ptr noundef nonnull align 8 dereferenceable(8) %1, ptr noundef %2)
  ret void
}