; Function Attrs: mustprogress uwtable
define hidden void @_ZN4cvc58internal5proof19LfscPrintChannelOut13printOpenRuleEPKNS0_9ProofNodeE(ptr nocapture noundef nonnull readonly align 8 dereferenceable(16) %this, ptr noundef %pn) unnamed_addr #4 align 2 {
entry:
  %d_out = getelementptr inbounds i8, ptr %this, i64 8
  %0 = load ptr, ptr %d_out, align 8
  %call = tail call noundef nonnull align 8 dereferenceable(8) ptr @_ZNSolsEPFRSoS_E(ptr noundef nonnull align 8 dereferenceable(8) %0, ptr noundef nonnull @_ZSt4endlIcSt11char_traitsIcEERSt13basic_ostreamIT_T0_ES6_)
  %call2 = tail call noundef nonnull align 8 dereferenceable(8) ptr @_ZStlsISt11char_traitsIcEERSt13basic_ostreamIcT_ES5_PKc(ptr noundef nonnull align 8 dereferenceable(8) %call, ptr noundef nonnull @.str.4)
  %1 = load ptr, ptr %d_out, align 8
  tail call void @_ZN4cvc58internal5proof19LfscPrintChannelOut9printRuleERSoPKNS0_9ProofNodeE(ptr noundef nonnull align 8 dereferenceable(8) %1, ptr noundef %pn)
  ret void
}